; Function Attrs: mustprogress nounwind uwtable
define hidden void @_ZN6Assimp14UnrealImporterC2Ev(ptr noundef nonnull align 8 dereferenceable(77) %0) unnamed_addr #0 align 2 {
  tail call void @_ZN6Assimp12BaseImporterC2Ev(ptr noundef nonnull align 8 dereferenceable(72) %0) #25
  store ptr getelementptr inbounds nuw inrange(-16, 48) (i8, ptr @_ZTVN6Assimp14UnrealImporterE, i64 16), ptr %0, align 8
  %2 = getelementptr inbounds nuw i8, ptr %0, i64 72
  store i32 0, ptr %2, align 8
  %3 = getelementptr inbounds nuw i8, ptr %0, i64 76
  store i8 1, ptr %3, align 4
  ret void
}